; Function Attrs: nounwind sspstrong uwtable
define internal void @machine_set_initrd(ptr noundef %obj, ptr noundef %value, ptr readnone captures(none) %errp) #0 {
entry:
  %call.i = tail call ptr @object_dynamic_cast_assert(ptr noundef %obj, ptr noundef nonnull @.str.225, ptr noundef nonnull @.str.226, i32 noundef 23, ptr noundef nonnull @__func__.MACHINE) #16
  %initrd_filename = getelementptr inbounds nuw i8, ptr %call.i, i64 256
  %0 = load ptr, ptr %initrd_filename, align 8
  tail call void @g_free(ptr noundef %0) #16
  %call1 = tail call noalias ptr @g_strdup(ptr noundef %value) #16
  store ptr %call1, ptr %initrd_filename, align 8
  ret void
}